; Function Attrs: nounwind uwtable
define ptr @l_List_forIn_x27_loop___at_Lean_Server_Test_Runner_main___spec__32___lambda__4(ptr noundef %0, ptr noundef %1, ptr noundef %2, ptr noundef %3, ptr noundef %4, ptr noundef %5, i8 zeroext %6, ptr readnone captures(none) %7, ptr noundef %8, ptr noundef %9) local_unnamed_addr #1 {
  %11 = ptrtoint ptr %5 to i64
  %12 = and i64 %11, 1
  %.not = icmp eq i64 %12, 0
  br i1 %.not, label %.critedge.i, label %13, !prof !16

13:                                               ; preds = %10
  %14 = lshr i64 %11, 1
  %15 = add nuw i64 %14, 1
  %16 = icmp sgt i64 %15, -1
  br i1 %16, label %17, label %21, !prof !11

17:                                               ; preds = %13
  %18 = shl nuw i64 %15, 1
  %19 = or disjoint i64 %18, 1
  %20 = inttoptr i64 %19 to ptr
  br label %lean_nat_add.exit

21:                                               ; preds = %13
  %22 = tail call ptr @lean_big_usize_to_nat(i64 noundef range(i64 0, -1) %15) #6
  br label %lean_nat_add.exit

.critedge.i:                                      ; preds = %10
  %23 = tail call ptr @lean_nat_big_add(ptr noundef %5, ptr noundef nonnull inttoptr (i64 3 to ptr)) #6
  br label %lean_nat_add.exit

lean_nat_add.exit:                                ; preds = %21, %17, %.critedge.i
  %.0.i = phi ptr [ %23, %.critedge.i ], [ %20, %17 ], [ %22, %21 ]
  %24 = tail call ptr @lean_apply_9(ptr noundef %0, ptr noundef %1, ptr noundef %2, ptr noundef %.0.i, ptr noundef %3, ptr noundef nonnull inttoptr (i64 3 to ptr), ptr noundef %4, ptr noundef nonnull inttoptr (i64 1 to ptr), ptr noundef %8, ptr noundef %9) #6
  ret ptr %24
}